; ModuleID = 'source-C-CXX/4/931.c'
source_filename = "source-C-CXX/4/931.c"
target datalayout = "e-m:e-p270:32:32-p271:32:32-p272:64:64-i64:64-f80:128-n8:16:32:64-S128"
target triple = "x86_64-pc-linux-gnu"

@.str = private unnamed_addr constant [4 x i8] c"%lf\00", align 1
@.str.1 = private unnamed_addr constant [3 x i8] c"%s\00", align 1
@.str.2 = private unnamed_addr constant [6 x i8] c"error\00", align 1
@.str.3 = private unnamed_addr constant [4 x i8] c"yes\00", align 1
@.str.4 = private unnamed_addr constant [3 x i8] c"no\00", align 1

; Function Attrs: nofree nounwind sspstrong uwtable
define dso_local i32 @main() local_unnamed_addr #0 {
  %1 = alloca [256 x [256 x i8]], align 16
  %2 = alloca double, align 8
  %3 = getelementptr inbounds [256 x [256 x i8]], [256 x [256 x i8]]* %1, i64 0, i64 0, i64 0
  call void @llvm.lifetime.start.p0i8(i64 65536, i8* nonnull %3) #4
  %4 = bitcast double* %2 to i8*
  call void @llvm.lifetime.start.p0i8(i64 8, i8* nonnull %4) #4
  %5 = call i32 (i8*, ...) @__isoc99_scanf(i8* getelementptr inbounds ([4 x i8], [4 x i8]* @.str, i64 0, i64 0), double* nonnull %2)
  %6 = getelementptr inbounds [256 x [256 x i8]], [256 x [256 x i8]]* %1, i64 0, i64 1, i64 0
  %7 = call i32 (i8*, ...) @__isoc99_scanf(i8* getelementptr inbounds ([3 x i8], [3 x i8]* @.str.1, i64 0, i64 0), i8* nonnull %6)
  %8 = call i32 (i8*, ...) @__isoc99_scanf(i8* getelementptr inbounds ([3 x i8], [3 x i8]* @.str.1, i64 0, i64 0), i8* nonnull %3)
  %9 = call i64 @strlen(i8* noundef nonnull %6) #5
  %10 = call i64 @strlen(i8* noundef nonnull %3) #5
  %11 = icmp eq i64 %9, %10
  br i1 %11, label %12, label %39

12:                                               ; preds = %0, %23
  %13 = phi i64 [ %28, %23 ], [ 0, %0 ]
  %14 = phi double [ %24, %23 ], [ 0.000000e+00, %0 ]
  %15 = phi double [ %27, %23 ], [ 0.000000e+00, %0 ]
  %16 = getelementptr inbounds [256 x [256 x i8]], [256 x [256 x i8]]* %1, i64 0, i64 0, i64 %13
  %17 = load i8, i8* %16, align 1, !tbaa !5
  switch i8 %17, label %21 [
    i8 0, label %29
    i8 65, label %18
    i8 84, label %18
    i8 67, label %18
    i8 71, label %18
  ]

18:                                               ; preds = %12, %12, %12, %12
  %19 = getelementptr inbounds [256 x [256 x i8]], [256 x [256 x i8]]* %1, i64 0, i64 1, i64 %13
  %20 = load i8, i8* %19, align 1, !tbaa !5
  switch i8 %20, label %21 [
    i8 65, label %23
    i8 84, label %23
    i8 67, label %23
    i8 71, label %23
  ]

21:                                               ; preds = %18, %12
  %22 = call i32 (i8*, ...) @printf(i8* nonnull dereferenceable(1) getelementptr inbounds ([6 x i8], [6 x i8]* @.str.2, i64 0, i64 0))
  br label %29

23:                                               ; preds = %18, %18, %18, %18
  %24 = fadd double %14, 1.000000e+00
  %25 = icmp eq i8 %17, %20
  %26 = fadd double %15, 1.000000e+00
  %27 = select i1 %25, double %26, double %15
  %28 = add nuw i64 %13, 1
  br label %12, !llvm.loop !8

29:                                               ; preds = %12, %21
  %30 = phi double [ 0.000000e+00, %21 ], [ %15, %12 ]
  %31 = call i64 @strlen(i8* noundef nonnull %3) #5
  %32 = uitofp i64 %31 to double
  %33 = fcmp oeq double %14, %32
  br i1 %33, label %34, label %42

34:                                               ; preds = %29
  %35 = load double, double* %2, align 8, !tbaa !10
  %36 = fdiv double %30, %14
  %37 = fcmp olt double %35, %36
  %38 = select i1 %37, i8* getelementptr inbounds ([4 x i8], [4 x i8]* @.str.3, i64 0, i64 0), i8* getelementptr inbounds ([3 x i8], [3 x i8]* @.str.4, i64 0, i64 0)
  br label %39

39:                                               ; preds = %0, %34
  %40 = phi i8* [ %38, %34 ], [ getelementptr inbounds ([6 x i8], [6 x i8]* @.str.2, i64 0, i64 0), %0 ]
  %41 = call i32 (i8*, ...) @printf(i8* nonnull dereferenceable(1) %40)
  br label %42

42:                                               ; preds = %39, %29
  call void @llvm.lifetime.end.p0i8(i64 8, i8* nonnull %4) #4
  call void @llvm.lifetime.end.p0i8(i64 65536, i8* nonnull %3) #4
  ret i32 0
}

; Function Attrs: argmemonly mustprogress nofree nosync nounwind willreturn
declare void @llvm.lifetime.start.p0i8(i64 immarg, i8* nocapture) #1

; Function Attrs: nofree nounwind
declare noundef i32 @__isoc99_scanf(i8* nocapture noundef readonly, ...) local_unnamed_addr #2

; Function Attrs: argmemonly mustprogress nofree nounwind readonly willreturn
declare i64 @strlen(i8* nocapture) local_unnamed_addr #3

; Function Attrs: nofree nounwind
declare noundef i32 @printf(i8* nocapture noundef readonly, ...) local_unnamed_addr #2

; Function Attrs: argmemonly mustprogress nofree nosync nounwind willreturn
declare void @llvm.lifetime.end.p0i8(i64 immarg, i8* nocapture) #1


!llvm.module.flags = !{!0, !1, !2, !3}
!llvm.ident = !{!4}

!0 = !{i32 1, !"wchar_size", i32 4}
!1 = !{i32 7, !"PIC Level", i32 2}
!2 = !{i32 7, !"PIE Level", i32 2}
!3 = !{i32 7, !"uwtable", i32 1}
!4 = !{!"clang version 13.0.0"}
!5 = !{!6, !6, i64 0}
!6 = !{!"omnipotent char", !7, i64 0}
!7 = !{!"Simple C/C++ TBAA"}
!8 = distinct !{!8, !9}
!9 = !{!"llvm.loop.mustprogress"}
!10 = !{!11, !11, i64 0}
!11 = !{!"double", !6, i64 0}
